; Function Attrs: mustprogress uwtable
define dso_local void @_ZNK4base13HistogramBase25GetSimpleAsciiBucketRangeB5cxx11Ei(ptr noalias nonnull sret(%"class.std::__cxx11::basic_string") align 8 %agg.result, ptr noundef nonnull align 8 dereferenceable(44) %this, i32 noundef %sample) local_unnamed_addr #0 align 2 personality ptr @__gxx_personality_v0 {
entry:
  tail call void @_ZNSt7__cxx1112basic_stringIcSt11char_traitsIcESaIcEEC1Ev(ptr noundef nonnull align 8 dereferenceable(32) %agg.result) #14
  %flags_.i = getelementptr inbounds i8, ptr %this, i64 40
  %0 = load atomic volatile i32, ptr %flags_.i monotonic, align 8
  %and = and i32 %0, 32768
  %tobool.not = icmp eq i32 %and, 0
  %1 = select i1 %tobool.not, ptr @.str.20, ptr @.str.19
  invoke void (ptr, ptr, ...) @_ZN4base13StringAppendFEPNSt7__cxx1112basic_stringIcSt11char_traitsIcESaIcEEEPKcz(ptr noundef nonnull %agg.result, ptr noundef nonnull %1, i32 noundef %sample)
          to label %nrvo.skipdtor unwind label %lpad

lpad:                                             ; preds = %entry
  %2 = landingpad { ptr, i32 }
          cleanup
  tail call void @_ZNSt7__cxx1112basic_stringIcSt11char_traitsIcESaIcEED1Ev(ptr noundef nonnull align 8 dereferenceable(32) %agg.result) #14
  resume { ptr, i32 } %2

nrvo.skipdtor:                                    ; preds = %entry
  ret void
}